
linkbomb4:     file format elf32-i386


Disassembly of section .init:

0804865c <_init>:
 804865c:	53                   	push   %ebx
 804865d:	83 ec 08             	sub    $0x8,%esp
 8048660:	e8 0b 02 00 00       	call   8048870 <__x86.get_pc_thunk.bx>
 8048665:	81 c3 9b 29 00 00    	add    $0x299b,%ebx
 804866b:	8b 83 fc ff ff ff    	mov    -0x4(%ebx),%eax
 8048671:	85 c0                	test   %eax,%eax
 8048673:	74 05                	je     804867a <_init+0x1e>
 8048675:	e8 b6 01 00 00       	call   8048830 <send@plt+0x10>
 804867a:	83 c4 08             	add    $0x8,%esp
 804867d:	5b                   	pop    %ebx
 804867e:	c3                   	ret    

Disassembly of section .plt:

08048680 <strcmp@plt-0x10>:
 8048680:	ff 35 04 b0 04 08    	pushl  0x804b004
 8048686:	ff 25 08 b0 04 08    	jmp    *0x804b008
 804868c:	00 00                	add    %al,(%eax)
	...

08048690 <strcmp@plt>:
 8048690:	ff 25 0c b0 04 08    	jmp    *0x804b00c
 8048696:	68 00 00 00 00       	push   $0x0
 804869b:	e9 e0 ff ff ff       	jmp    8048680 <_init+0x24>

080486a0 <printf@plt>:
 80486a0:	ff 25 10 b0 04 08    	jmp    *0x804b010
 80486a6:	68 08 00 00 00       	push   $0x8
 80486ab:	e9 d0 ff ff ff       	jmp    8048680 <_init+0x24>

080486b0 <strdup@plt>:
 80486b0:	ff 25 14 b0 04 08    	jmp    *0x804b014
 80486b6:	68 10 00 00 00       	push   $0x10
 80486bb:	e9 c0 ff ff ff       	jmp    8048680 <_init+0x24>

080486c0 <bzero@plt>:
 80486c0:	ff 25 18 b0 04 08    	jmp    *0x804b018
 80486c6:	68 18 00 00 00       	push   $0x18
 80486cb:	e9 b0 ff ff ff       	jmp    8048680 <_init+0x24>

080486d0 <fclose@plt>:
 80486d0:	ff 25 1c b0 04 08    	jmp    *0x804b01c
 80486d6:	68 20 00 00 00       	push   $0x20
 80486db:	e9 a0 ff ff ff       	jmp    8048680 <_init+0x24>

080486e0 <__stack_chk_fail@plt>:
 80486e0:	ff 25 20 b0 04 08    	jmp    *0x804b020
 80486e6:	68 28 00 00 00       	push   $0x28
 80486eb:	e9 90 ff ff ff       	jmp    8048680 <_init+0x24>

080486f0 <htons@plt>:
 80486f0:	ff 25 24 b0 04 08    	jmp    *0x804b024
 80486f6:	68 30 00 00 00       	push   $0x30
 80486fb:	e9 80 ff ff ff       	jmp    8048680 <_init+0x24>

08048700 <__xstat@plt>:
 8048700:	ff 25 28 b0 04 08    	jmp    *0x804b028
 8048706:	68 38 00 00 00       	push   $0x38
 804870b:	e9 70 ff ff ff       	jmp    8048680 <_init+0x24>

08048710 <strcat@plt>:
 8048710:	ff 25 2c b0 04 08    	jmp    *0x804b02c
 8048716:	68 40 00 00 00       	push   $0x40
 804871b:	e9 60 ff ff ff       	jmp    8048680 <_init+0x24>

08048720 <fread@plt>:
 8048720:	ff 25 30 b0 04 08    	jmp    *0x804b030
 8048726:	68 48 00 00 00       	push   $0x48
 804872b:	e9 50 ff ff ff       	jmp    8048680 <_init+0x24>

08048730 <strcpy@plt>:
 8048730:	ff 25 34 b0 04 08    	jmp    *0x804b034
 8048736:	68 50 00 00 00       	push   $0x50
 804873b:	e9 40 ff ff ff       	jmp    8048680 <_init+0x24>

08048740 <malloc@plt>:
 8048740:	ff 25 38 b0 04 08    	jmp    *0x804b038
 8048746:	68 58 00 00 00       	push   $0x58
 804874b:	e9 30 ff ff ff       	jmp    8048680 <_init+0x24>

08048750 <puts@plt>:
 8048750:	ff 25 3c b0 04 08    	jmp    *0x804b03c
 8048756:	68 60 00 00 00       	push   $0x60
 804875b:	e9 20 ff ff ff       	jmp    8048680 <_init+0x24>

08048760 <exit@plt>:
 8048760:	ff 25 40 b0 04 08    	jmp    *0x804b040
 8048766:	68 68 00 00 00       	push   $0x68
 804876b:	e9 10 ff ff ff       	jmp    8048680 <_init+0x24>

08048770 <strlen@plt>:
 8048770:	ff 25 44 b0 04 08    	jmp    *0x804b044
 8048776:	68 70 00 00 00       	push   $0x70
 804877b:	e9 00 ff ff ff       	jmp    8048680 <_init+0x24>

08048780 <__libc_start_main@plt>:
 8048780:	ff 25 48 b0 04 08    	jmp    *0x804b048
 8048786:	68 78 00 00 00       	push   $0x78
 804878b:	e9 f0 fe ff ff       	jmp    8048680 <_init+0x24>

08048790 <getopt@plt>:
 8048790:	ff 25 4c b0 04 08    	jmp    *0x804b04c
 8048796:	68 80 00 00 00       	push   $0x80
 804879b:	e9 e0 fe ff ff       	jmp    8048680 <_init+0x24>

080487a0 <fopen@plt>:
 80487a0:	ff 25 50 b0 04 08    	jmp    *0x804b050
 80487a6:	68 88 00 00 00       	push   $0x88
 80487ab:	e9 d0 fe ff ff       	jmp    8048680 <_init+0x24>

080487b0 <putchar@plt>:
 80487b0:	ff 25 54 b0 04 08    	jmp    *0x804b054
 80487b6:	68 90 00 00 00       	push   $0x90
 80487bb:	e9 c0 fe ff ff       	jmp    8048680 <_init+0x24>

080487c0 <sprintf@plt>:
 80487c0:	ff 25 58 b0 04 08    	jmp    *0x804b058
 80487c6:	68 98 00 00 00       	push   $0x98
 80487cb:	e9 b0 fe ff ff       	jmp    8048680 <_init+0x24>

080487d0 <socket@plt>:
 80487d0:	ff 25 5c b0 04 08    	jmp    *0x804b05c
 80487d6:	68 a0 00 00 00       	push   $0xa0
 80487db:	e9 a0 fe ff ff       	jmp    8048680 <_init+0x24>

080487e0 <inet_addr@plt>:
 80487e0:	ff 25 60 b0 04 08    	jmp    *0x804b060
 80487e6:	68 a8 00 00 00       	push   $0xa8
 80487eb:	e9 90 fe ff ff       	jmp    8048680 <_init+0x24>

080487f0 <connect@plt>:
 80487f0:	ff 25 64 b0 04 08    	jmp    *0x804b064
 80487f6:	68 b0 00 00 00       	push   $0xb0
 80487fb:	e9 80 fe ff ff       	jmp    8048680 <_init+0x24>

08048800 <recv@plt>:
 8048800:	ff 25 68 b0 04 08    	jmp    *0x804b068
 8048806:	68 b8 00 00 00       	push   $0xb8
 804880b:	e9 70 fe ff ff       	jmp    8048680 <_init+0x24>

08048810 <close@plt>:
 8048810:	ff 25 6c b0 04 08    	jmp    *0x804b06c
 8048816:	68 c0 00 00 00       	push   $0xc0
 804881b:	e9 60 fe ff ff       	jmp    8048680 <_init+0x24>

08048820 <send@plt>:
 8048820:	ff 25 70 b0 04 08    	jmp    *0x804b070
 8048826:	68 c8 00 00 00       	push   $0xc8
 804882b:	e9 50 fe ff ff       	jmp    8048680 <_init+0x24>

Disassembly of section .plt.got:

08048830 <.plt.got>:
 8048830:	ff 25 fc af 04 08    	jmp    *0x804affc
 8048836:	66 90                	xchg   %ax,%ax

Disassembly of section .text:

08048840 <_start>:
 8048840:	31 ed                	xor    %ebp,%ebp
 8048842:	5e                   	pop    %esi
 8048843:	89 e1                	mov    %esp,%ecx
 8048845:	83 e4 f0             	and    $0xfffffff0,%esp
 8048848:	50                   	push   %eax
 8048849:	54                   	push   %esp
 804884a:	52                   	push   %edx
 804884b:	68 f0 93 04 08       	push   $0x80493f0
 8048850:	68 90 93 04 08       	push   $0x8049390
 8048855:	51                   	push   %ecx
 8048856:	56                   	push   %esi
 8048857:	68 07 91 04 08       	push   $0x8049107
 804885c:	e8 1f ff ff ff       	call   8048780 <__libc_start_main@plt>
 8048861:	f4                   	hlt    
 8048862:	66 90                	xchg   %ax,%ax
 8048864:	66 90                	xchg   %ax,%ax
 8048866:	66 90                	xchg   %ax,%ax
 8048868:	66 90                	xchg   %ax,%ax
 804886a:	66 90                	xchg   %ax,%ax
 804886c:	66 90                	xchg   %ax,%ax
 804886e:	66 90                	xchg   %ax,%ax

08048870 <__x86.get_pc_thunk.bx>:
 8048870:	8b 1c 24             	mov    (%esp),%ebx
 8048873:	c3                   	ret    
 8048874:	66 90                	xchg   %ax,%ax
 8048876:	66 90                	xchg   %ax,%ax
 8048878:	66 90                	xchg   %ax,%ax
 804887a:	66 90                	xchg   %ax,%ax
 804887c:	66 90                	xchg   %ax,%ax
 804887e:	66 90                	xchg   %ax,%ax

08048880 <deregister_tm_clones>:
 8048880:	b8 83 b0 04 08       	mov    $0x804b083,%eax
 8048885:	2d 80 b0 04 08       	sub    $0x804b080,%eax
 804888a:	83 f8 06             	cmp    $0x6,%eax
 804888d:	76 1a                	jbe    80488a9 <deregister_tm_clones+0x29>
 804888f:	b8 00 00 00 00       	mov    $0x0,%eax
 8048894:	85 c0                	test   %eax,%eax
 8048896:	74 11                	je     80488a9 <deregister_tm_clones+0x29>
 8048898:	55                   	push   %ebp
 8048899:	89 e5                	mov    %esp,%ebp
 804889b:	83 ec 14             	sub    $0x14,%esp
 804889e:	68 80 b0 04 08       	push   $0x804b080
 80488a3:	ff d0                	call   *%eax
 80488a5:	83 c4 10             	add    $0x10,%esp
 80488a8:	c9                   	leave  
 80488a9:	f3 c3                	repz ret 
 80488ab:	90                   	nop
 80488ac:	8d 74 26 00          	lea    0x0(%esi,%eiz,1),%esi

080488b0 <register_tm_clones>:
 80488b0:	b8 80 b0 04 08       	mov    $0x804b080,%eax
 80488b5:	2d 80 b0 04 08       	sub    $0x804b080,%eax
 80488ba:	c1 f8 02             	sar    $0x2,%eax
 80488bd:	89 c2                	mov    %eax,%edx
 80488bf:	c1 ea 1f             	shr    $0x1f,%edx
 80488c2:	01 d0                	add    %edx,%eax
 80488c4:	d1 f8                	sar    %eax
 80488c6:	74 1b                	je     80488e3 <register_tm_clones+0x33>
 80488c8:	ba 00 00 00 00       	mov    $0x0,%edx
 80488cd:	85 d2                	test   %edx,%edx
 80488cf:	74 12                	je     80488e3 <register_tm_clones+0x33>
 80488d1:	55                   	push   %ebp
 80488d2:	89 e5                	mov    %esp,%ebp
 80488d4:	83 ec 10             	sub    $0x10,%esp
 80488d7:	50                   	push   %eax
 80488d8:	68 80 b0 04 08       	push   $0x804b080
 80488dd:	ff d2                	call   *%edx
 80488df:	83 c4 10             	add    $0x10,%esp
 80488e2:	c9                   	leave  
 80488e3:	f3 c3                	repz ret 
 80488e5:	8d 74 26 00          	lea    0x0(%esi,%eiz,1),%esi
 80488e9:	8d bc 27 00 00 00 00 	lea    0x0(%edi,%eiz,1),%edi

080488f0 <__do_global_dtors_aux>:
 80488f0:	80 3d a4 b0 04 08 00 	cmpb   $0x0,0x804b0a4
 80488f7:	75 13                	jne    804890c <__do_global_dtors_aux+0x1c>
 80488f9:	55                   	push   %ebp
 80488fa:	89 e5                	mov    %esp,%ebp
 80488fc:	83 ec 08             	sub    $0x8,%esp
 80488ff:	e8 7c ff ff ff       	call   8048880 <deregister_tm_clones>
 8048904:	c6 05 a4 b0 04 08 01 	movb   $0x1,0x804b0a4
 804890b:	c9                   	leave  
 804890c:	f3 c3                	repz ret 
 804890e:	66 90                	xchg   %ax,%ax

08048910 <frame_dummy>:
 8048910:	b8 10 af 04 08       	mov    $0x804af10,%eax
 8048915:	8b 10                	mov    (%eax),%edx
 8048917:	85 d2                	test   %edx,%edx
 8048919:	75 05                	jne    8048920 <frame_dummy+0x10>
 804891b:	eb 93                	jmp    80488b0 <register_tm_clones>
 804891d:	8d 76 00             	lea    0x0(%esi),%esi
 8048920:	ba 00 00 00 00       	mov    $0x0,%edx
 8048925:	85 d2                	test   %edx,%edx
 8048927:	74 f2                	je     804891b <frame_dummy+0xb>
 8048929:	55                   	push   %ebp
 804892a:	89 e5                	mov    %esp,%ebp
 804892c:	83 ec 14             	sub    $0x14,%esp
 804892f:	50                   	push   %eax
 8048930:	ff d2                	call   *%edx
 8048932:	83 c4 10             	add    $0x10,%esp
 8048935:	c9                   	leave  
 8048936:	e9 75 ff ff ff       	jmp    80488b0 <register_tm_clones>

0804893b <file_size>:
 804893b:	55                   	push   %ebp
 804893c:	89 e5                	mov    %esp,%ebp
 804893e:	83 ec 78             	sub    $0x78,%esp
 8048941:	8b 45 08             	mov    0x8(%ebp),%eax
 8048944:	89 45 94             	mov    %eax,-0x6c(%ebp)
 8048947:	65 a1 14 00 00 00    	mov    %gs:0x14,%eax
 804894d:	89 45 f4             	mov    %eax,-0xc(%ebp)
 8048950:	31 c0                	xor    %eax,%eax
 8048952:	83 ec 08             	sub    $0x8,%esp
 8048955:	8d 45 9c             	lea    -0x64(%ebp),%eax
 8048958:	50                   	push   %eax
 8048959:	ff 75 94             	pushl  -0x6c(%ebp)
 804895c:	e8 9f 0a 00 00       	call   8049400 <__stat>
 8048961:	83 c4 10             	add    $0x10,%esp
 8048964:	8b 45 c8             	mov    -0x38(%ebp),%eax
 8048967:	89 45 98             	mov    %eax,-0x68(%ebp)
 804896a:	8b 45 98             	mov    -0x68(%ebp),%eax
 804896d:	8b 55 f4             	mov    -0xc(%ebp),%edx
 8048970:	65 33 15 14 00 00 00 	xor    %gs:0x14,%edx
 8048977:	74 05                	je     804897e <file_size+0x43>
 8048979:	e8 62 fd ff ff       	call   80486e0 <__stack_chk_fail@plt>
 804897e:	c9                   	leave  
 804897f:	c3                   	ret    

08048980 <sendfile>:
 8048980:	55                   	push   %ebp
 8048981:	89 e5                	mov    %esp,%ebp
 8048983:	81 ec 28 04 00 00    	sub    $0x428,%esp
 8048989:	8b 45 0c             	mov    0xc(%ebp),%eax
 804898c:	89 85 e4 fb ff ff    	mov    %eax,-0x41c(%ebp)
 8048992:	65 a1 14 00 00 00    	mov    %gs:0x14,%eax
 8048998:	89 45 f4             	mov    %eax,-0xc(%ebp)
 804899b:	31 c0                	xor    %eax,%eax
 804899d:	83 ec 08             	sub    $0x8,%esp
 80489a0:	68 00 04 00 00       	push   $0x400
 80489a5:	8d 85 f4 fb ff ff    	lea    -0x40c(%ebp),%eax
 80489ab:	50                   	push   %eax
 80489ac:	e8 0f fd ff ff       	call   80486c0 <bzero@plt>
 80489b1:	83 c4 10             	add    $0x10,%esp
 80489b4:	83 ec 08             	sub    $0x8,%esp
 80489b7:	68 40 94 04 08       	push   $0x8049440
 80489bc:	ff b5 e4 fb ff ff    	pushl  -0x41c(%ebp)
 80489c2:	e8 d9 fd ff ff       	call   80487a0 <fopen@plt>
 80489c7:	83 c4 10             	add    $0x10,%esp
 80489ca:	89 85 e8 fb ff ff    	mov    %eax,-0x418(%ebp)
 80489d0:	83 bd e8 fb ff ff 00 	cmpl   $0x0,-0x418(%ebp)
 80489d7:	75 0a                	jne    80489e3 <sendfile+0x63>
 80489d9:	b8 00 00 00 00       	mov    $0x0,%eax
 80489de:	e9 5e 01 00 00       	jmp    8048b41 <sendfile+0x1c1>
 80489e3:	c7 85 ec fb ff ff 00 	movl   $0x0,-0x414(%ebp)
 80489ea:	00 00 00 
 80489ed:	eb 40                	jmp    8048a2f <sendfile+0xaf>
 80489ef:	8b 85 ec fb ff ff    	mov    -0x414(%ebp),%eax
 80489f5:	6a 00                	push   $0x0
 80489f7:	50                   	push   %eax
 80489f8:	8d 85 f4 fb ff ff    	lea    -0x40c(%ebp),%eax
 80489fe:	50                   	push   %eax
 80489ff:	ff 75 08             	pushl  0x8(%ebp)
 8048a02:	e8 19 fe ff ff       	call   8048820 <send@plt>
 8048a07:	83 c4 10             	add    $0x10,%esp
 8048a0a:	85 c0                	test   %eax,%eax
 8048a0c:	79 0a                	jns    8048a18 <sendfile+0x98>
 8048a0e:	b8 00 00 00 00       	mov    $0x0,%eax
 8048a13:	e9 29 01 00 00       	jmp    8048b41 <sendfile+0x1c1>
 8048a18:	83 ec 08             	sub    $0x8,%esp
 8048a1b:	68 00 04 00 00       	push   $0x400
 8048a20:	8d 85 f4 fb ff ff    	lea    -0x40c(%ebp),%eax
 8048a26:	50                   	push   %eax
 8048a27:	e8 94 fc ff ff       	call   80486c0 <bzero@plt>
 8048a2c:	83 c4 10             	add    $0x10,%esp
 8048a2f:	ff b5 e8 fb ff ff    	pushl  -0x418(%ebp)
 8048a35:	68 00 04 00 00       	push   $0x400
 8048a3a:	6a 01                	push   $0x1
 8048a3c:	8d 85 f4 fb ff ff    	lea    -0x40c(%ebp),%eax
 8048a42:	50                   	push   %eax
 8048a43:	e8 d8 fc ff ff       	call   8048720 <fread@plt>
 8048a48:	83 c4 10             	add    $0x10,%esp
 8048a4b:	89 85 ec fb ff ff    	mov    %eax,-0x414(%ebp)
 8048a51:	83 bd ec fb ff ff 00 	cmpl   $0x0,-0x414(%ebp)
 8048a58:	7f 95                	jg     80489ef <sendfile+0x6f>
 8048a5a:	83 ec 0c             	sub    $0xc,%esp
 8048a5d:	ff b5 e8 fb ff ff    	pushl  -0x418(%ebp)
 8048a63:	e8 68 fc ff ff       	call   80486d0 <fclose@plt>
 8048a68:	83 c4 10             	add    $0x10,%esp
 8048a6b:	a1 b4 b0 04 08       	mov    0x804b0b4,%eax
 8048a70:	83 f8 03             	cmp    $0x3,%eax
 8048a73:	0f 85 c3 00 00 00    	jne    8048b3c <sendfile+0x1bc>
 8048a79:	83 ec 08             	sub    $0x8,%esp
 8048a7c:	68 40 94 04 08       	push   $0x8049440
 8048a81:	68 42 94 04 08       	push   $0x8049442
 8048a86:	e8 15 fd ff ff       	call   80487a0 <fopen@plt>
 8048a8b:	83 c4 10             	add    $0x10,%esp
 8048a8e:	89 85 e8 fb ff ff    	mov    %eax,-0x418(%ebp)
 8048a94:	83 bd e8 fb ff ff 00 	cmpl   $0x0,-0x418(%ebp)
 8048a9b:	75 1a                	jne    8048ab7 <sendfile+0x137>
 8048a9d:	83 ec 0c             	sub    $0xc,%esp
 8048aa0:	68 51 94 04 08       	push   $0x8049451
 8048aa5:	e8 a6 fc ff ff       	call   8048750 <puts@plt>
 8048aaa:	83 c4 10             	add    $0x10,%esp
 8048aad:	b8 00 00 00 00       	mov    $0x0,%eax
 8048ab2:	e9 8a 00 00 00       	jmp    8048b41 <sendfile+0x1c1>
 8048ab7:	c7 85 f0 fb ff ff 00 	movl   $0x0,-0x410(%ebp)
 8048abe:	00 00 00 
 8048ac1:	eb 3d                	jmp    8048b00 <sendfile+0x180>
 8048ac3:	8b 85 f0 fb ff ff    	mov    -0x410(%ebp),%eax
 8048ac9:	6a 00                	push   $0x0
 8048acb:	50                   	push   %eax
 8048acc:	8d 85 f4 fb ff ff    	lea    -0x40c(%ebp),%eax
 8048ad2:	50                   	push   %eax
 8048ad3:	ff 75 08             	pushl  0x8(%ebp)
 8048ad6:	e8 45 fd ff ff       	call   8048820 <send@plt>
 8048adb:	83 c4 10             	add    $0x10,%esp
 8048ade:	85 c0                	test   %eax,%eax
 8048ae0:	79 07                	jns    8048ae9 <sendfile+0x169>
 8048ae2:	b8 00 00 00 00       	mov    $0x0,%eax
 8048ae7:	eb 58                	jmp    8048b41 <sendfile+0x1c1>
 8048ae9:	83 ec 08             	sub    $0x8,%esp
 8048aec:	68 00 04 00 00       	push   $0x400
 8048af1:	8d 85 f4 fb ff ff    	lea    -0x40c(%ebp),%eax
 8048af7:	50                   	push   %eax
 8048af8:	e8 c3 fb ff ff       	call   80486c0 <bzero@plt>
 8048afd:	83 c4 10             	add    $0x10,%esp
 8048b00:	ff b5 e8 fb ff ff    	pushl  -0x418(%ebp)
 8048b06:	68 00 04 00 00       	push   $0x400
 8048b0b:	6a 01                	push   $0x1
 8048b0d:	8d 85 f4 fb ff ff    	lea    -0x40c(%ebp),%eax
 8048b13:	50                   	push   %eax
 8048b14:	e8 07 fc ff ff       	call   8048720 <fread@plt>
 8048b19:	83 c4 10             	add    $0x10,%esp
 8048b1c:	89 85 f0 fb ff ff    	mov    %eax,-0x410(%ebp)
 8048b22:	83 bd f0 fb ff ff 00 	cmpl   $0x0,-0x410(%ebp)
 8048b29:	7f 98                	jg     8048ac3 <sendfile+0x143>
 8048b2b:	83 ec 0c             	sub    $0xc,%esp
 8048b2e:	ff b5 e8 fb ff ff    	pushl  -0x418(%ebp)
 8048b34:	e8 97 fb ff ff       	call   80486d0 <fclose@plt>
 8048b39:	83 c4 10             	add    $0x10,%esp
 8048b3c:	b8 01 00 00 00       	mov    $0x1,%eax
 8048b41:	8b 55 f4             	mov    -0xc(%ebp),%edx
 8048b44:	65 33 15 14 00 00 00 	xor    %gs:0x14,%edx
 8048b4b:	74 05                	je     8048b52 <sendfile+0x1d2>
 8048b4d:	e8 8e fb ff ff       	call   80486e0 <__stack_chk_fail@plt>
 8048b52:	c9                   	leave  
 8048b53:	c3                   	ret    

08048b54 <client>:
 8048b54:	55                   	push   %ebp
 8048b55:	89 e5                	mov    %esp,%ebp
 8048b57:	57                   	push   %edi
 8048b58:	81 ec b4 00 00 00    	sub    $0xb4,%esp
 8048b5e:	8b 45 0c             	mov    0xc(%ebp),%eax
 8048b61:	89 85 54 ff ff ff    	mov    %eax,-0xac(%ebp)
 8048b67:	65 a1 14 00 00 00    	mov    %gs:0x14,%eax
 8048b6d:	89 45 f4             	mov    %eax,-0xc(%ebp)
 8048b70:	31 c0                	xor    %eax,%eax
 8048b72:	83 ec 04             	sub    $0x4,%esp
 8048b75:	6a 00                	push   $0x0
 8048b77:	6a 01                	push   $0x1
 8048b79:	6a 02                	push   $0x2
 8048b7b:	e8 50 fc ff ff       	call   80487d0 <socket@plt>
 8048b80:	83 c4 10             	add    $0x10,%esp
 8048b83:	89 85 6c ff ff ff    	mov    %eax,-0x94(%ebp)
 8048b89:	83 bd 6c ff ff ff ff 	cmpl   $0xffffffff,-0x94(%ebp)
 8048b90:	75 0a                	jne    8048b9c <client+0x48>
 8048b92:	b8 00 00 00 00       	mov    $0x0,%eax
 8048b97:	e9 02 05 00 00       	jmp    804909e <client+0x54a>
 8048b9c:	66 c7 85 78 ff ff ff 	movw   $0x2,-0x88(%ebp)
 8048ba3:	02 00 
 8048ba5:	83 ec 0c             	sub    $0xc,%esp
 8048ba8:	68 83 3e 00 00       	push   $0x3e83
 8048bad:	e8 3e fb ff ff       	call   80486f0 <htons@plt>
 8048bb2:	83 c4 10             	add    $0x10,%esp
 8048bb5:	66 89 85 7a ff ff ff 	mov    %ax,-0x86(%ebp)
 8048bbc:	83 ec 0c             	sub    $0xc,%esp
 8048bbf:	68 6b 94 04 08       	push   $0x804946b
 8048bc4:	e8 17 fc ff ff       	call   80487e0 <inet_addr@plt>
 8048bc9:	83 c4 10             	add    $0x10,%esp
 8048bcc:	89 85 7c ff ff ff    	mov    %eax,-0x84(%ebp)
 8048bd2:	8b 45 08             	mov    0x8(%ebp),%eax
 8048bd5:	a3 b4 b0 04 08       	mov    %eax,0x804b0b4
 8048bda:	83 ec 04             	sub    $0x4,%esp
 8048bdd:	ff 75 08             	pushl  0x8(%ebp)
 8048be0:	68 78 94 04 08       	push   $0x8049478
 8048be5:	8d 45 8b             	lea    -0x75(%ebp),%eax
 8048be8:	50                   	push   %eax
 8048be9:	e8 d2 fb ff ff       	call   80487c0 <sprintf@plt>
 8048bee:	83 c4 10             	add    $0x10,%esp
 8048bf1:	83 ec 0c             	sub    $0xc,%esp
 8048bf4:	8d 45 8b             	lea    -0x75(%ebp),%eax
 8048bf7:	50                   	push   %eax
 8048bf8:	e8 73 fb ff ff       	call   8048770 <strlen@plt>
 8048bfd:	83 c4 10             	add    $0x10,%esp
 8048c00:	83 c0 07             	add    $0x7,%eax
 8048c03:	83 ec 0c             	sub    $0xc,%esp
 8048c06:	50                   	push   %eax
 8048c07:	e8 34 fb ff ff       	call   8048740 <malloc@plt>
 8048c0c:	83 c4 10             	add    $0x10,%esp
 8048c0f:	89 85 70 ff ff ff    	mov    %eax,-0x90(%ebp)
 8048c15:	8b 85 70 ff ff ff    	mov    -0x90(%ebp),%eax
 8048c1b:	c7 00 70 68 61 73    	movl   $0x73616870,(%eax)
 8048c21:	66 c7 40 04 65 00    	movw   $0x65,0x4(%eax)
 8048c27:	83 ec 08             	sub    $0x8,%esp
 8048c2a:	8d 45 8b             	lea    -0x75(%ebp),%eax
 8048c2d:	50                   	push   %eax
 8048c2e:	ff b5 70 ff ff ff    	pushl  -0x90(%ebp)
 8048c34:	e8 d7 fa ff ff       	call   8048710 <strcat@plt>
 8048c39:	83 c4 10             	add    $0x10,%esp
 8048c3c:	8b 85 70 ff ff ff    	mov    -0x90(%ebp),%eax
 8048c42:	b9 ff ff ff ff       	mov    $0xffffffff,%ecx
 8048c47:	89 c2                	mov    %eax,%edx
 8048c49:	b8 00 00 00 00       	mov    $0x0,%eax
 8048c4e:	89 d7                	mov    %edx,%edi
 8048c50:	f2 ae                	repnz scas %es:(%edi),%al
 8048c52:	89 c8                	mov    %ecx,%eax
 8048c54:	f7 d0                	not    %eax
 8048c56:	8d 50 ff             	lea    -0x1(%eax),%edx
 8048c59:	8b 85 70 ff ff ff    	mov    -0x90(%ebp),%eax
 8048c5f:	01 d0                	add    %edx,%eax
 8048c61:	66 c7 00 2e 6f       	movw   $0x6f2e,(%eax)
 8048c66:	c6 40 02 00          	movb   $0x0,0x2(%eax)
 8048c6a:	83 ec 0c             	sub    $0xc,%esp
 8048c6d:	ff b5 70 ff ff ff    	pushl  -0x90(%ebp)
 8048c73:	e8 c3 fc ff ff       	call   804893b <file_size>
 8048c78:	83 c4 10             	add    $0x10,%esp
 8048c7b:	89 85 64 ff ff ff    	mov    %eax,-0x9c(%ebp)
 8048c81:	8d 45 90             	lea    -0x70(%ebp),%eax
 8048c84:	c7 00 32 30 32 30    	movl   $0x30323032,(%eax)
 8048c8a:	c7 40 04 33 30 33 31 	movl   $0x31333033,0x4(%eax)
 8048c91:	66 c7 40 08 38 31    	movw   $0x3138,0x8(%eax)
 8048c97:	c6 40 0a 00          	movb   $0x0,0xa(%eax)
 8048c9b:	a1 b0 b0 04 08       	mov    0x804b0b0,%eax
 8048ca0:	83 ec 08             	sub    $0x8,%esp
 8048ca3:	50                   	push   %eax
 8048ca4:	8d 45 90             	lea    -0x70(%ebp),%eax
 8048ca7:	50                   	push   %eax
 8048ca8:	e8 63 fa ff ff       	call   8048710 <strcat@plt>
 8048cad:	83 c4 10             	add    $0x10,%esp
 8048cb0:	83 ec 08             	sub    $0x8,%esp
 8048cb3:	ff b5 70 ff ff ff    	pushl  -0x90(%ebp)
 8048cb9:	8d 45 90             	lea    -0x70(%ebp),%eax
 8048cbc:	50                   	push   %eax
 8048cbd:	e8 4e fa ff ff       	call   8048710 <strcat@plt>
 8048cc2:	83 c4 10             	add    $0x10,%esp
 8048cc5:	83 ec 04             	sub    $0x4,%esp
 8048cc8:	6a 10                	push   $0x10
 8048cca:	8d 85 78 ff ff ff    	lea    -0x88(%ebp),%eax
 8048cd0:	50                   	push   %eax
 8048cd1:	ff b5 6c ff ff ff    	pushl  -0x94(%ebp)
 8048cd7:	e8 14 fb ff ff       	call   80487f0 <connect@plt>
 8048cdc:	83 c4 10             	add    $0x10,%esp
 8048cdf:	83 f8 ff             	cmp    $0xffffffff,%eax
 8048ce2:	75 1a                	jne    8048cfe <client+0x1aa>
 8048ce4:	83 ec 0c             	sub    $0xc,%esp
 8048ce7:	68 7c 94 04 08       	push   $0x804947c
 8048cec:	e8 5f fa ff ff       	call   8048750 <puts@plt>
 8048cf1:	83 c4 10             	add    $0x10,%esp
 8048cf4:	b8 00 00 00 00       	mov    $0x0,%eax
 8048cf9:	e9 a0 03 00 00       	jmp    804909e <client+0x54a>
 8048cfe:	83 ec 0c             	sub    $0xc,%esp
 8048d01:	8d 45 90             	lea    -0x70(%ebp),%eax
 8048d04:	50                   	push   %eax
 8048d05:	e8 66 fa ff ff       	call   8048770 <strlen@plt>
 8048d0a:	83 c4 10             	add    $0x10,%esp
 8048d0d:	6a 00                	push   $0x0
 8048d0f:	50                   	push   %eax
 8048d10:	8d 45 90             	lea    -0x70(%ebp),%eax
 8048d13:	50                   	push   %eax
 8048d14:	ff b5 6c ff ff ff    	pushl  -0x94(%ebp)
 8048d1a:	e8 01 fb ff ff       	call   8048820 <send@plt>
 8048d1f:	83 c4 10             	add    $0x10,%esp
 8048d22:	85 c0                	test   %eax,%eax
 8048d24:	79 1a                	jns    8048d40 <client+0x1ec>
 8048d26:	83 ec 0c             	sub    $0xc,%esp
 8048d29:	68 a0 94 04 08       	push   $0x80494a0
 8048d2e:	e8 1d fa ff ff       	call   8048750 <puts@plt>
 8048d33:	83 c4 10             	add    $0x10,%esp
 8048d36:	b8 00 00 00 00       	mov    $0x0,%eax
 8048d3b:	e9 5e 03 00 00       	jmp    804909e <client+0x54a>
 8048d40:	6a 00                	push   $0x0
 8048d42:	6a 01                	push   $0x1
 8048d44:	68 b9 b0 04 08       	push   $0x804b0b9
 8048d49:	ff b5 6c ff ff ff    	pushl  -0x94(%ebp)
 8048d4f:	e8 ac fa ff ff       	call   8048800 <recv@plt>
 8048d54:	83 c4 10             	add    $0x10,%esp
 8048d57:	0f b6 05 b9 b0 04 08 	movzbl 0x804b0b9,%eax
 8048d5e:	83 e8 30             	sub    $0x30,%eax
 8048d61:	a2 b9 b0 04 08       	mov    %al,0x804b0b9
 8048d66:	0f b6 05 b9 b0 04 08 	movzbl 0x804b0b9,%eax
 8048d6d:	3c 01                	cmp    $0x1,%al
 8048d6f:	74 1a                	je     8048d8b <client+0x237>
 8048d71:	83 ec 0c             	sub    $0xc,%esp
 8048d74:	68 c0 94 04 08       	push   $0x80494c0
 8048d79:	e8 d2 f9 ff ff       	call   8048750 <puts@plt>
 8048d7e:	83 c4 10             	add    $0x10,%esp
 8048d81:	b8 00 00 00 00       	mov    $0x0,%eax
 8048d86:	e9 13 03 00 00       	jmp    804909e <client+0x54a>
 8048d8b:	6a 00                	push   $0x0
 8048d8d:	6a 04                	push   $0x4
 8048d8f:	8d 85 64 ff ff ff    	lea    -0x9c(%ebp),%eax
 8048d95:	50                   	push   %eax
 8048d96:	ff b5 6c ff ff ff    	pushl  -0x94(%ebp)
 8048d9c:	e8 7f fa ff ff       	call   8048820 <send@plt>
 8048da1:	83 c4 10             	add    $0x10,%esp
 8048da4:	85 c0                	test   %eax,%eax
 8048da6:	79 1a                	jns    8048dc2 <client+0x26e>
 8048da8:	83 ec 0c             	sub    $0xc,%esp
 8048dab:	68 d4 94 04 08       	push   $0x80494d4
 8048db0:	e8 9b f9 ff ff       	call   8048750 <puts@plt>
 8048db5:	83 c4 10             	add    $0x10,%esp
 8048db8:	b8 00 00 00 00       	mov    $0x0,%eax
 8048dbd:	e9 dc 02 00 00       	jmp    804909e <client+0x54a>
 8048dc2:	83 ec 0c             	sub    $0xc,%esp
 8048dc5:	ff b5 54 ff ff ff    	pushl  -0xac(%ebp)
 8048dcb:	e8 a0 f9 ff ff       	call   8048770 <strlen@plt>
 8048dd0:	83 c4 10             	add    $0x10,%esp
 8048dd3:	83 c0 04             	add    $0x4,%eax
 8048dd6:	89 85 68 ff ff ff    	mov    %eax,-0x98(%ebp)
 8048ddc:	8b 85 68 ff ff ff    	mov    -0x98(%ebp),%eax
 8048de2:	83 ec 0c             	sub    $0xc,%esp
 8048de5:	50                   	push   %eax
 8048de6:	e8 55 f9 ff ff       	call   8048740 <malloc@plt>
 8048deb:	83 c4 10             	add    $0x10,%esp
 8048dee:	89 85 74 ff ff ff    	mov    %eax,-0x8c(%ebp)
 8048df4:	83 ec 08             	sub    $0x8,%esp
 8048df7:	8d 45 8b             	lea    -0x75(%ebp),%eax
 8048dfa:	50                   	push   %eax
 8048dfb:	ff b5 74 ff ff ff    	pushl  -0x8c(%ebp)
 8048e01:	e8 2a f9 ff ff       	call   8048730 <strcpy@plt>
 8048e06:	83 c4 10             	add    $0x10,%esp
 8048e09:	8b 85 74 ff ff ff    	mov    -0x8c(%ebp),%eax
 8048e0f:	b9 ff ff ff ff       	mov    $0xffffffff,%ecx
 8048e14:	89 c2                	mov    %eax,%edx
 8048e16:	b8 00 00 00 00       	mov    $0x0,%eax
 8048e1b:	89 d7                	mov    %edx,%edi
 8048e1d:	f2 ae                	repnz scas %es:(%edi),%al
 8048e1f:	89 c8                	mov    %ecx,%eax
 8048e21:	f7 d0                	not    %eax
 8048e23:	8d 50 ff             	lea    -0x1(%eax),%edx
 8048e26:	8b 85 74 ff ff ff    	mov    -0x8c(%ebp),%eax
 8048e2c:	01 d0                	add    %edx,%eax
 8048e2e:	c7 00 3a 20 20 00    	movl   $0x20203a,(%eax)
 8048e34:	83 ec 08             	sub    $0x8,%esp
 8048e37:	ff b5 54 ff ff ff    	pushl  -0xac(%ebp)
 8048e3d:	ff b5 74 ff ff ff    	pushl  -0x8c(%ebp)
 8048e43:	e8 c8 f8 ff ff       	call   8048710 <strcat@plt>
 8048e48:	83 c4 10             	add    $0x10,%esp
 8048e4b:	6a 00                	push   $0x0
 8048e4d:	6a 04                	push   $0x4
 8048e4f:	8d 85 68 ff ff ff    	lea    -0x98(%ebp),%eax
 8048e55:	50                   	push   %eax
 8048e56:	ff b5 6c ff ff ff    	pushl  -0x94(%ebp)
 8048e5c:	e8 bf f9 ff ff       	call   8048820 <send@plt>
 8048e61:	83 c4 10             	add    $0x10,%esp
 8048e64:	85 c0                	test   %eax,%eax
 8048e66:	79 1a                	jns    8048e82 <client+0x32e>
 8048e68:	83 ec 0c             	sub    $0xc,%esp
 8048e6b:	68 04 95 04 08       	push   $0x8049504
 8048e70:	e8 db f8 ff ff       	call   8048750 <puts@plt>
 8048e75:	83 c4 10             	add    $0x10,%esp
 8048e78:	b8 00 00 00 00       	mov    $0x0,%eax
 8048e7d:	e9 1c 02 00 00       	jmp    804909e <client+0x54a>
 8048e82:	83 ec 0c             	sub    $0xc,%esp
 8048e85:	ff b5 74 ff ff ff    	pushl  -0x8c(%ebp)
 8048e8b:	e8 e0 f8 ff ff       	call   8048770 <strlen@plt>
 8048e90:	83 c4 10             	add    $0x10,%esp
 8048e93:	6a 00                	push   $0x0
 8048e95:	50                   	push   %eax
 8048e96:	ff b5 74 ff ff ff    	pushl  -0x8c(%ebp)
 8048e9c:	ff b5 6c ff ff ff    	pushl  -0x94(%ebp)
 8048ea2:	e8 79 f9 ff ff       	call   8048820 <send@plt>
 8048ea7:	83 c4 10             	add    $0x10,%esp
 8048eaa:	85 c0                	test   %eax,%eax
 8048eac:	79 1a                	jns    8048ec8 <client+0x374>
 8048eae:	83 ec 0c             	sub    $0xc,%esp
 8048eb1:	68 34 95 04 08       	push   $0x8049534
 8048eb6:	e8 95 f8 ff ff       	call   8048750 <puts@plt>
 8048ebb:	83 c4 10             	add    $0x10,%esp
 8048ebe:	b8 00 00 00 00       	mov    $0x0,%eax
 8048ec3:	e9 d6 01 00 00       	jmp    804909e <client+0x54a>
 8048ec8:	83 ec 08             	sub    $0x8,%esp
 8048ecb:	ff b5 70 ff ff ff    	pushl  -0x90(%ebp)
 8048ed1:	ff b5 6c ff ff ff    	pushl  -0x94(%ebp)
 8048ed7:	e8 a4 fa ff ff       	call   8048980 <sendfile>
 8048edc:	83 c4 10             	add    $0x10,%esp
 8048edf:	85 c0                	test   %eax,%eax
 8048ee1:	75 0a                	jne    8048eed <client+0x399>
 8048ee3:	b8 00 00 00 00       	mov    $0x0,%eax
 8048ee8:	e9 b1 01 00 00       	jmp    804909e <client+0x54a>
 8048eed:	83 7d 08 04          	cmpl   $0x4,0x8(%ebp)
 8048ef1:	75 26                	jne    8048f19 <client+0x3c5>
 8048ef3:	6a 00                	push   $0x0
 8048ef5:	6a 01                	push   $0x1
 8048ef7:	68 b8 b0 04 08       	push   $0x804b0b8
 8048efc:	ff b5 6c ff ff ff    	pushl  -0x94(%ebp)
 8048f02:	e8 f9 f8 ff ff       	call   8048800 <recv@plt>
 8048f07:	83 c4 10             	add    $0x10,%esp
 8048f0a:	0f b6 05 b8 b0 04 08 	movzbl 0x804b0b8,%eax
 8048f11:	83 e8 30             	sub    $0x30,%eax
 8048f14:	a2 b8 b0 04 08       	mov    %al,0x804b0b8
 8048f19:	83 7d 08 05          	cmpl   $0x5,0x8(%ebp)
 8048f1d:	75 26                	jne    8048f45 <client+0x3f1>
 8048f1f:	6a 00                	push   $0x0
 8048f21:	6a 01                	push   $0x1
 8048f23:	68 b8 b0 04 08       	push   $0x804b0b8
 8048f28:	ff b5 6c ff ff ff    	pushl  -0x94(%ebp)
 8048f2e:	e8 cd f8 ff ff       	call   8048800 <recv@plt>
 8048f33:	83 c4 10             	add    $0x10,%esp
 8048f36:	0f b6 05 b8 b0 04 08 	movzbl 0x804b0b8,%eax
 8048f3d:	83 e8 30             	sub    $0x30,%eax
 8048f40:	a2 b8 b0 04 08       	mov    %al,0x804b0b8
 8048f45:	83 ec 0c             	sub    $0xc,%esp
 8048f48:	ff b5 6c ff ff ff    	pushl  -0x94(%ebp)
 8048f4e:	e8 bd f8 ff ff       	call   8048810 <close@plt>
 8048f53:	83 c4 10             	add    $0x10,%esp
 8048f56:	83 ec 0c             	sub    $0xc,%esp
 8048f59:	68 58 95 04 08       	push   $0x8049558
 8048f5e:	e8 ed f7 ff ff       	call   8048750 <puts@plt>
 8048f63:	83 c4 10             	add    $0x10,%esp
 8048f66:	8b 45 08             	mov    0x8(%ebp),%eax
 8048f69:	83 f8 04             	cmp    $0x4,%eax
 8048f6c:	74 6b                	je     8048fd9 <client+0x485>
 8048f6e:	83 f8 04             	cmp    $0x4,%eax
 8048f71:	7f 0b                	jg     8048f7e <client+0x42a>
 8048f73:	83 f8 01             	cmp    $0x1,%eax
 8048f76:	0f 8c 16 01 00 00    	jl     8049092 <client+0x53e>
 8048f7c:	eb 0e                	jmp    8048f8c <client+0x438>
 8048f7e:	83 f8 05             	cmp    $0x5,%eax
 8048f81:	0f 84 d3 00 00 00    	je     804905a <client+0x506>
 8048f87:	e9 06 01 00 00       	jmp    8049092 <client+0x53e>
 8048f8c:	83 ec 08             	sub    $0x8,%esp
 8048f8f:	68 84 95 04 08       	push   $0x8049584
 8048f94:	ff b5 54 ff ff ff    	pushl  -0xac(%ebp)
 8048f9a:	e8 f1 f6 ff ff       	call   8048690 <strcmp@plt>
 8048f9f:	83 c4 10             	add    $0x10,%esp
 8048fa2:	85 c0                	test   %eax,%eax
 8048fa4:	75 1b                	jne    8048fc1 <client+0x46d>
 8048fa6:	83 ec 04             	sub    $0x4,%esp
 8048fa9:	ff 75 08             	pushl  0x8(%ebp)
 8048fac:	ff 75 08             	pushl  0x8(%ebp)
 8048faf:	68 90 95 04 08       	push   $0x8049590
 8048fb4:	e8 e7 f6 ff ff       	call   80486a0 <printf@plt>
 8048fb9:	83 c4 10             	add    $0x10,%esp
 8048fbc:	e9 d8 00 00 00       	jmp    8049099 <client+0x545>
 8048fc1:	83 ec 08             	sub    $0x8,%esp
 8048fc4:	ff 75 08             	pushl  0x8(%ebp)
 8048fc7:	68 c0 95 04 08       	push   $0x80495c0
 8048fcc:	e8 cf f6 ff ff       	call   80486a0 <printf@plt>
 8048fd1:	83 c4 10             	add    $0x10,%esp
 8048fd4:	e9 c0 00 00 00       	jmp    8049099 <client+0x545>
 8048fd9:	83 ec 08             	sub    $0x8,%esp
 8048fdc:	68 84 95 04 08       	push   $0x8049584
 8048fe1:	ff b5 54 ff ff ff    	pushl  -0xac(%ebp)
 8048fe7:	e8 a4 f6 ff ff       	call   8048690 <strcmp@plt>
 8048fec:	83 c4 10             	add    $0x10,%esp
 8048fef:	85 c0                	test   %eax,%eax
 8048ff1:	75 20                	jne    8049013 <client+0x4bf>
 8048ff3:	0f b6 05 b8 b0 04 08 	movzbl 0x804b0b8,%eax
 8048ffa:	84 c0                	test   %al,%al
 8048ffc:	75 15                	jne    8049013 <client+0x4bf>
 8048ffe:	83 ec 0c             	sub    $0xc,%esp
 8049001:	68 00 96 04 08       	push   $0x8049600
 8049006:	e8 45 f7 ff ff       	call   8048750 <puts@plt>
 804900b:	83 c4 10             	add    $0x10,%esp
 804900e:	e9 82 00 00 00       	jmp    8049095 <client+0x541>
 8049013:	0f b6 05 b8 b0 04 08 	movzbl 0x804b0b8,%eax
 804901a:	3c 01                	cmp    $0x1,%al
 804901c:	75 10                	jne    804902e <client+0x4da>
 804901e:	83 ec 0c             	sub    $0xc,%esp
 8049021:	68 34 96 04 08       	push   $0x8049634
 8049026:	e8 25 f7 ff ff       	call   8048750 <puts@plt>
 804902b:	83 c4 10             	add    $0x10,%esp
 804902e:	83 ec 08             	sub    $0x8,%esp
 8049031:	68 84 95 04 08       	push   $0x8049584
 8049036:	ff b5 54 ff ff ff    	pushl  -0xac(%ebp)
 804903c:	e8 4f f6 ff ff       	call   8048690 <strcmp@plt>
 8049041:	83 c4 10             	add    $0x10,%esp
 8049044:	85 c0                	test   %eax,%eax
 8049046:	74 4d                	je     8049095 <client+0x541>
 8049048:	83 ec 0c             	sub    $0xc,%esp
 804904b:	68 60 96 04 08       	push   $0x8049660
 8049050:	e8 fb f6 ff ff       	call   8048750 <puts@plt>
 8049055:	83 c4 10             	add    $0x10,%esp
 8049058:	eb 3b                	jmp    8049095 <client+0x541>
 804905a:	0f b6 05 b8 b0 04 08 	movzbl 0x804b0b8,%eax
 8049061:	3c 01                	cmp    $0x1,%al
 8049063:	75 10                	jne    8049075 <client+0x521>
 8049065:	83 ec 0c             	sub    $0xc,%esp
 8049068:	68 9c 96 04 08       	push   $0x804969c
 804906d:	e8 de f6 ff ff       	call   8048750 <puts@plt>
 8049072:	83 c4 10             	add    $0x10,%esp
 8049075:	0f b6 05 b8 b0 04 08 	movzbl 0x804b0b8,%eax
 804907c:	84 c0                	test   %al,%al
 804907e:	75 18                	jne    8049098 <client+0x544>
 8049080:	83 ec 0c             	sub    $0xc,%esp
 8049083:	68 d0 96 04 08       	push   $0x80496d0
 8049088:	e8 c3 f6 ff ff       	call   8048750 <puts@plt>
 804908d:	83 c4 10             	add    $0x10,%esp
 8049090:	eb 06                	jmp    8049098 <client+0x544>
 8049092:	90                   	nop
 8049093:	eb 04                	jmp    8049099 <client+0x545>
 8049095:	90                   	nop
 8049096:	eb 01                	jmp    8049099 <client+0x545>
 8049098:	90                   	nop
 8049099:	b8 01 00 00 00       	mov    $0x1,%eax
 804909e:	8b 7d f4             	mov    -0xc(%ebp),%edi
 80490a1:	65 33 3d 14 00 00 00 	xor    %gs:0x14,%edi
 80490a8:	74 05                	je     80490af <client+0x55b>
 80490aa:	e8 31 f6 ff ff       	call   80486e0 <__stack_chk_fail@plt>
 80490af:	8b 7d fc             	mov    -0x4(%ebp),%edi
 80490b2:	c9                   	leave  
 80490b3:	c3                   	ret    

080490b4 <usage>:
 80490b4:	55                   	push   %ebp
 80490b5:	89 e5                	mov    %esp,%ebp
 80490b7:	83 ec 08             	sub    $0x8,%esp
 80490ba:	83 ec 08             	sub    $0x8,%esp
 80490bd:	ff 75 08             	pushl  0x8(%ebp)
 80490c0:	68 f0 96 04 08       	push   $0x80496f0
 80490c5:	e8 d6 f5 ff ff       	call   80486a0 <printf@plt>
 80490ca:	83 c4 10             	add    $0x10,%esp
 80490cd:	83 ec 0c             	sub    $0xc,%esp
 80490d0:	68 13 97 04 08       	push   $0x8049713
 80490d5:	e8 76 f6 ff ff       	call   8048750 <puts@plt>
 80490da:	83 c4 10             	add    $0x10,%esp
 80490dd:	83 ec 0c             	sub    $0xc,%esp
 80490e0:	68 2c 97 04 08       	push   $0x804972c
 80490e5:	e8 66 f6 ff ff       	call   8048750 <puts@plt>
 80490ea:	83 c4 10             	add    $0x10,%esp
 80490ed:	83 ec 0c             	sub    $0xc,%esp
 80490f0:	68 68 97 04 08       	push   $0x8049768
 80490f5:	e8 56 f6 ff ff       	call   8048750 <puts@plt>
 80490fa:	83 c4 10             	add    $0x10,%esp
 80490fd:	83 ec 0c             	sub    $0xc,%esp
 8049100:	6a 00                	push   $0x0
 8049102:	e8 59 f6 ff ff       	call   8048760 <exit@plt>

08049107 <main>:
 8049107:	8d 4c 24 04          	lea    0x4(%esp),%ecx
 804910b:	83 e4 f0             	and    $0xfffffff0,%esp
 804910e:	ff 71 fc             	pushl  -0x4(%ecx)
 8049111:	55                   	push   %ebp
 8049112:	89 e5                	mov    %esp,%ebp
 8049114:	53                   	push   %ebx
 8049115:	51                   	push   %ecx
 8049116:	83 ec 10             	sub    $0x10,%esp
 8049119:	89 cb                	mov    %ecx,%ebx
 804911b:	a1 80 b0 04 08       	mov    0x804b080,%eax
 8049120:	a3 a8 b0 04 08       	mov    %eax,0x804b0a8
 8049125:	eb 5b                	jmp    8049182 <main+0x7b>
 8049127:	0f be 45 f7          	movsbl -0x9(%ebp),%eax
 804912b:	83 f8 70             	cmp    $0x70,%eax
 804912e:	74 1d                	je     804914d <main+0x46>
 8049130:	83 f8 73             	cmp    $0x73,%eax
 8049133:	74 30                	je     8049165 <main+0x5e>
 8049135:	83 f8 68             	cmp    $0x68,%eax
 8049138:	75 37                	jne    8049171 <main+0x6a>
 804913a:	8b 43 04             	mov    0x4(%ebx),%eax
 804913d:	8b 00                	mov    (%eax),%eax
 804913f:	83 ec 0c             	sub    $0xc,%esp
 8049142:	50                   	push   %eax
 8049143:	e8 6c ff ff ff       	call   80490b4 <usage>
 8049148:	83 c4 10             	add    $0x10,%esp
 804914b:	eb 35                	jmp    8049182 <main+0x7b>
 804914d:	a1 a0 b0 04 08       	mov    0x804b0a0,%eax
 8049152:	83 ec 0c             	sub    $0xc,%esp
 8049155:	50                   	push   %eax
 8049156:	e8 55 f5 ff ff       	call   80486b0 <strdup@plt>
 804915b:	83 c4 10             	add    $0x10,%esp
 804915e:	a3 b0 b0 04 08       	mov    %eax,0x804b0b0
 8049163:	eb 1d                	jmp    8049182 <main+0x7b>
 8049165:	c7 05 ac b0 04 08 01 	movl   $0x1,0x804b0ac
 804916c:	00 00 00 
 804916f:	eb 11                	jmp    8049182 <main+0x7b>
 8049171:	8b 43 04             	mov    0x4(%ebx),%eax
 8049174:	8b 00                	mov    (%eax),%eax
 8049176:	83 ec 0c             	sub    $0xc,%esp
 8049179:	50                   	push   %eax
 804917a:	e8 35 ff ff ff       	call   80490b4 <usage>
 804917f:	83 c4 10             	add    $0x10,%esp
 8049182:	83 ec 04             	sub    $0x4,%esp
 8049185:	68 8d 97 04 08       	push   $0x804978d
 804918a:	ff 73 04             	pushl  0x4(%ebx)
 804918d:	ff 33                	pushl  (%ebx)
 804918f:	e8 fc f5 ff ff       	call   8048790 <getopt@plt>
 8049194:	83 c4 10             	add    $0x10,%esp
 8049197:	88 45 f7             	mov    %al,-0x9(%ebp)
 804919a:	80 7d f7 ff          	cmpb   $0xff,-0x9(%ebp)
 804919e:	75 87                	jne    8049127 <main+0x20>
 80491a0:	a1 ac b0 04 08       	mov    0x804b0ac,%eax
 80491a5:	85 c0                	test   %eax,%eax
 80491a7:	74 37                	je     80491e0 <main+0xd9>
 80491a9:	a1 b0 b0 04 08       	mov    0x804b0b0,%eax
 80491ae:	85 c0                	test   %eax,%eax
 80491b0:	75 2e                	jne    80491e0 <main+0xd9>
 80491b2:	8b 43 04             	mov    0x4(%ebx),%eax
 80491b5:	8b 00                	mov    (%eax),%eax
 80491b7:	83 ec 08             	sub    $0x8,%esp
 80491ba:	50                   	push   %eax
 80491bb:	68 94 97 04 08       	push   $0x8049794
 80491c0:	e8 db f4 ff ff       	call   80486a0 <printf@plt>
 80491c5:	83 c4 10             	add    $0x10,%esp
 80491c8:	8b 43 04             	mov    0x4(%ebx),%eax
 80491cb:	8b 00                	mov    (%eax),%eax
 80491cd:	83 ec 0c             	sub    $0xc,%esp
 80491d0:	50                   	push   %eax
 80491d1:	e8 de fe ff ff       	call   80490b4 <usage>
 80491d6:	83 c4 10             	add    $0x10,%esp
 80491d9:	b8 00 00 00 00       	mov    $0x0,%eax
 80491de:	eb 27                	jmp    8049207 <main+0x100>
 80491e0:	a1 7c b0 04 08       	mov    0x804b07c,%eax
 80491e5:	85 c0                	test   %eax,%eax
 80491e7:	74 09                	je     80491f2 <main+0xeb>
 80491e9:	a1 7c b0 04 08       	mov    0x804b07c,%eax
 80491ee:	ff d0                	call   *%eax
 80491f0:	eb 10                	jmp    8049202 <main+0xfb>
 80491f2:	83 ec 0c             	sub    $0xc,%esp
 80491f5:	68 18 98 04 08       	push   $0x8049818
 80491fa:	e8 51 f5 ff ff       	call   8048750 <puts@plt>
 80491ff:	83 c4 10             	add    $0x10,%esp
 8049202:	b8 00 00 00 00       	mov    $0x0,%eax
 8049207:	8d 65 f8             	lea    -0x8(%ebp),%esp
 804920a:	59                   	pop    %ecx
 804920b:	5b                   	pop    %ebx
 804920c:	5d                   	pop    %ebp
 804920d:	8d 61 fc             	lea    -0x4(%ecx),%esp
 8049210:	c3                   	ret    

08049211 <do_phase>:
 8049211:	55                   	push   %ebp
 8049212:	89 e5                	mov    %esp,%ebp
 8049214:	83 ec 38             	sub    $0x38,%esp
 8049217:	65 a1 14 00 00 00    	mov    %gs:0x14,%eax
 804921d:	89 45 f4             	mov    %eax,-0xc(%ebp)
 8049220:	31 c0                	xor    %eax,%eax
 8049222:	c7 45 de 46 50 51 5a 	movl   $0x5a515046,-0x22(%ebp)
 8049229:	c7 45 e2 57 52 49 4b 	movl   $0x4b495257,-0x1e(%ebp)
 8049230:	66 c7 45 e6 4d 56    	movw   $0x564d,-0x1a(%ebp)
 8049236:	c6 45 e8 00          	movb   $0x0,-0x18(%ebp)
 804923a:	c7 45 d8 00 00 00 00 	movl   $0x0,-0x28(%ebp)
 8049241:	e9 fa 00 00 00       	jmp    8049340 <do_phase+0x12f>
 8049246:	8d 55 de             	lea    -0x22(%ebp),%edx
 8049249:	8b 45 d8             	mov    -0x28(%ebp),%eax
 804924c:	01 d0                	add    %edx,%eax
 804924e:	0f b6 00             	movzbl (%eax),%eax
 8049251:	88 45 d7             	mov    %al,-0x29(%ebp)
 8049254:	0f be 45 d7          	movsbl -0x29(%ebp),%eax
 8049258:	83 e8 41             	sub    $0x41,%eax
 804925b:	83 f8 19             	cmp    $0x19,%eax
 804925e:	0f 87 b0 00 00 00    	ja     8049314 <do_phase+0x103>
 8049264:	8b 04 85 8c 98 04 08 	mov    0x804988c(,%eax,4),%eax
 804926b:	ff e0                	jmp    *%eax
 804926d:	c6 45 d7 7b          	movb   $0x7b,-0x29(%ebp)
 8049271:	e9 9e 00 00 00       	jmp    8049314 <do_phase+0x103>
 8049276:	c6 45 d7 37          	movb   $0x37,-0x29(%ebp)
 804927a:	e9 95 00 00 00       	jmp    8049314 <do_phase+0x103>
 804927f:	c6 45 d7 35          	movb   $0x35,-0x29(%ebp)
 8049283:	e9 8c 00 00 00       	jmp    8049314 <do_phase+0x103>
 8049288:	c6 45 d7 74          	movb   $0x74,-0x29(%ebp)
 804928c:	e9 83 00 00 00       	jmp    8049314 <do_phase+0x103>
 8049291:	c6 45 d7 34          	movb   $0x34,-0x29(%ebp)
 8049295:	eb 7d                	jmp    8049314 <do_phase+0x103>
 8049297:	c6 45 d7 38          	movb   $0x38,-0x29(%ebp)
 804929b:	eb 77                	jmp    8049314 <do_phase+0x103>
 804929d:	c6 45 d7 3c          	movb   $0x3c,-0x29(%ebp)
 80492a1:	eb 71                	jmp    8049314 <do_phase+0x103>
 80492a3:	c6 45 d7 40          	movb   $0x40,-0x29(%ebp)
 80492a7:	eb 6b                	jmp    8049314 <do_phase+0x103>
 80492a9:	c6 45 d7 49          	movb   $0x49,-0x29(%ebp)
 80492ad:	eb 65                	jmp    8049314 <do_phase+0x103>
 80492af:	c6 45 d7 39          	movb   $0x39,-0x29(%ebp)
 80492b3:	eb 5f                	jmp    8049314 <do_phase+0x103>
 80492b5:	c6 45 d7 30          	movb   $0x30,-0x29(%ebp)
 80492b9:	eb 59                	jmp    8049314 <do_phase+0x103>
 80492bb:	c6 45 d7 5b          	movb   $0x5b,-0x29(%ebp)
 80492bf:	eb 53                	jmp    8049314 <do_phase+0x103>
 80492c1:	c6 45 d7 6f          	movb   $0x6f,-0x29(%ebp)
 80492c5:	eb 4d                	jmp    8049314 <do_phase+0x103>
 80492c7:	c6 45 d7 63          	movb   $0x63,-0x29(%ebp)
 80492cb:	eb 47                	jmp    8049314 <do_phase+0x103>
 80492cd:	c6 45 d7 3f          	movb   $0x3f,-0x29(%ebp)
 80492d1:	eb 41                	jmp    8049314 <do_phase+0x103>
 80492d3:	c6 45 d7 32          	movb   $0x32,-0x29(%ebp)
 80492d7:	eb 3b                	jmp    8049314 <do_phase+0x103>
 80492d9:	c6 45 d7 62          	movb   $0x62,-0x29(%ebp)
 80492dd:	eb 35                	jmp    8049314 <do_phase+0x103>
 80492df:	c6 45 d7 56          	movb   $0x56,-0x29(%ebp)
 80492e3:	eb 2f                	jmp    8049314 <do_phase+0x103>
 80492e5:	c6 45 d7 33          	movb   $0x33,-0x29(%ebp)
 80492e9:	eb 29                	jmp    8049314 <do_phase+0x103>
 80492eb:	c6 45 d7 5d          	movb   $0x5d,-0x29(%ebp)
 80492ef:	eb 23                	jmp    8049314 <do_phase+0x103>
 80492f1:	c6 45 d7 31          	movb   $0x31,-0x29(%ebp)
 80492f5:	eb 1d                	jmp    8049314 <do_phase+0x103>
 80492f7:	c6 45 d7 36          	movb   $0x36,-0x29(%ebp)
 80492fb:	eb 17                	jmp    8049314 <do_phase+0x103>
 80492fd:	c6 45 d7 63          	movb   $0x63,-0x29(%ebp)
 8049301:	eb 11                	jmp    8049314 <do_phase+0x103>
 8049303:	c6 45 d7 74          	movb   $0x74,-0x29(%ebp)
 8049307:	eb 0b                	jmp    8049314 <do_phase+0x103>
 8049309:	c6 45 d7 49          	movb   $0x49,-0x29(%ebp)
 804930d:	eb 05                	jmp    8049314 <do_phase+0x103>
 804930f:	c6 45 d7 69          	movb   $0x69,-0x29(%ebp)
 8049313:	90                   	nop
 8049314:	8d 55 e9             	lea    -0x17(%ebp),%edx
 8049317:	8b 45 d8             	mov    -0x28(%ebp),%eax
 804931a:	01 c2                	add    %eax,%edx
 804931c:	0f b6 45 d7          	movzbl -0x29(%ebp),%eax
 8049320:	88 02                	mov    %al,(%edx)
 8049322:	8d 55 e9             	lea    -0x17(%ebp),%edx
 8049325:	8b 45 d8             	mov    -0x28(%ebp),%eax
 8049328:	01 d0                	add    %edx,%eax
 804932a:	0f b6 00             	movzbl (%eax),%eax
 804932d:	0f be c0             	movsbl %al,%eax
 8049330:	83 ec 0c             	sub    $0xc,%esp
 8049333:	50                   	push   %eax
 8049334:	e8 77 f4 ff ff       	call   80487b0 <putchar@plt>
 8049339:	83 c4 10             	add    $0x10,%esp
 804933c:	83 45 d8 01          	addl   $0x1,-0x28(%ebp)
 8049340:	8b 45 d8             	mov    -0x28(%ebp),%eax
 8049343:	83 f8 09             	cmp    $0x9,%eax
 8049346:	0f 86 fa fe ff ff    	jbe    8049246 <do_phase+0x35>
 804934c:	8d 55 e9             	lea    -0x17(%ebp),%edx
 804934f:	8b 45 d8             	mov    -0x28(%ebp),%eax
 8049352:	01 d0                	add    %edx,%eax
 8049354:	c6 00 00             	movb   $0x0,(%eax)
 8049357:	a1 ac b0 04 08       	mov    0x804b0ac,%eax
 804935c:	83 f8 01             	cmp    $0x1,%eax
 804935f:	75 11                	jne    8049372 <do_phase+0x161>
 8049361:	83 ec 08             	sub    $0x8,%esp
 8049364:	8d 45 e9             	lea    -0x17(%ebp),%eax
 8049367:	50                   	push   %eax
 8049368:	6a 04                	push   $0x4
 804936a:	e8 e5 f7 ff ff       	call   8048b54 <client>
 804936f:	83 c4 10             	add    $0x10,%esp
 8049372:	90                   	nop
 8049373:	8b 45 f4             	mov    -0xc(%ebp),%eax
 8049376:	65 33 05 14 00 00 00 	xor    %gs:0x14,%eax
 804937d:	74 05                	je     8049384 <do_phase+0x173>
 804937f:	e8 5c f3 ff ff       	call   80486e0 <__stack_chk_fail@plt>
 8049384:	c9                   	leave  
 8049385:	c3                   	ret    
 8049386:	66 90                	xchg   %ax,%ax
 8049388:	66 90                	xchg   %ax,%ax
 804938a:	66 90                	xchg   %ax,%ax
 804938c:	66 90                	xchg   %ax,%ax
 804938e:	66 90                	xchg   %ax,%ax

08049390 <__libc_csu_init>:
 8049390:	55                   	push   %ebp
 8049391:	57                   	push   %edi
 8049392:	56                   	push   %esi
 8049393:	53                   	push   %ebx
 8049394:	e8 d7 f4 ff ff       	call   8048870 <__x86.get_pc_thunk.bx>
 8049399:	81 c3 67 1c 00 00    	add    $0x1c67,%ebx
 804939f:	83 ec 0c             	sub    $0xc,%esp
 80493a2:	8b 6c 24 20          	mov    0x20(%esp),%ebp
 80493a6:	8d b3 0c ff ff ff    	lea    -0xf4(%ebx),%esi
 80493ac:	e8 ab f2 ff ff       	call   804865c <_init>
 80493b1:	8d 83 08 ff ff ff    	lea    -0xf8(%ebx),%eax
 80493b7:	29 c6                	sub    %eax,%esi
 80493b9:	c1 fe 02             	sar    $0x2,%esi
 80493bc:	85 f6                	test   %esi,%esi
 80493be:	74 25                	je     80493e5 <__libc_csu_init+0x55>
 80493c0:	31 ff                	xor    %edi,%edi
 80493c2:	8d b6 00 00 00 00    	lea    0x0(%esi),%esi
 80493c8:	83 ec 04             	sub    $0x4,%esp
 80493cb:	ff 74 24 2c          	pushl  0x2c(%esp)
 80493cf:	ff 74 24 2c          	pushl  0x2c(%esp)
 80493d3:	55                   	push   %ebp
 80493d4:	ff 94 bb 08 ff ff ff 	call   *-0xf8(%ebx,%edi,4)
 80493db:	83 c7 01             	add    $0x1,%edi
 80493de:	83 c4 10             	add    $0x10,%esp
 80493e1:	39 f7                	cmp    %esi,%edi
 80493e3:	75 e3                	jne    80493c8 <__libc_csu_init+0x38>
 80493e5:	83 c4 0c             	add    $0xc,%esp
 80493e8:	5b                   	pop    %ebx
 80493e9:	5e                   	pop    %esi
 80493ea:	5f                   	pop    %edi
 80493eb:	5d                   	pop    %ebp
 80493ec:	c3                   	ret    
 80493ed:	8d 76 00             	lea    0x0(%esi),%esi

080493f0 <__libc_csu_fini>:
 80493f0:	f3 c3                	repz ret 
 80493f2:	66 90                	xchg   %ax,%ax
 80493f4:	66 90                	xchg   %ax,%ax
 80493f6:	66 90                	xchg   %ax,%ax
 80493f8:	66 90                	xchg   %ax,%ax
 80493fa:	66 90                	xchg   %ax,%ax
 80493fc:	66 90                	xchg   %ax,%ax
 80493fe:	66 90                	xchg   %ax,%ax

08049400 <__stat>:
 8049400:	53                   	push   %ebx
 8049401:	e8 6a f4 ff ff       	call   8048870 <__x86.get_pc_thunk.bx>
 8049406:	81 c3 fa 1b 00 00    	add    $0x1bfa,%ebx
 804940c:	83 ec 0c             	sub    $0xc,%esp
 804940f:	ff 74 24 18          	pushl  0x18(%esp)
 8049413:	ff 74 24 18          	pushl  0x18(%esp)
 8049417:	6a 03                	push   $0x3
 8049419:	e8 e2 f2 ff ff       	call   8048700 <__xstat@plt>
 804941e:	83 c4 18             	add    $0x18,%esp
 8049421:	5b                   	pop    %ebx
 8049422:	c3                   	ret    

Disassembly of section .fini:

08049424 <_fini>:
 8049424:	53                   	push   %ebx
 8049425:	83 ec 08             	sub    $0x8,%esp
 8049428:	e8 43 f4 ff ff       	call   8048870 <__x86.get_pc_thunk.bx>
 804942d:	81 c3 d3 1b 00 00    	add    $0x1bd3,%ebx
 8049433:	83 c4 08             	add    $0x8,%esp
 8049436:	5b                   	pop    %ebx
 8049437:	c3                   	ret    
